
zig-out/bin/riscv_script:     file format elf64-littleriscv


Disassembly of section .text:

00000000000012c4 <.text>:
    12c4:	fe010113          	addi	sp,sp,-32
    12c8:	00113c23          	sd	ra,24(sp)
    12cc:	00810513          	addi	a0,sp,8
    12d0:	00000097          	auipc	ra,0x0
    12d4:	030080e7          	jalr	48(ra) # 0x1300
    12d8:	00200513          	li	a0,2
    12dc:	00000097          	auipc	ra,0x0
    12e0:	128080e7          	jalr	296(ra) # 0x1404
    12e4:	02051513          	slli	a0,a0,0x20
    12e8:	02055513          	srli	a0,a0,0x20
    12ec:	40000893          	li	a7,1024
    12f0:	00000073          	ecall
    12f4:	05d00893          	li	a7,93
    12f8:	00000513          	li	a0,0
    12fc:	00000073          	ecall
    1300:	00050693          	mv	a3,a0
    1304:	00002517          	auipc	a0,0x2
    1308:	1d450593          	addi	a1,a0,468 # 0x34d8
    130c:	fffff737          	lui	a4,0xfffff
    1310:	01000793          	li	a5,16
    1314:	fffff517          	auipc	a0,0xfffff
    1318:	f6c50813          	addi	a6,a0,-148 # 0x280
    131c:	04000893          	li	a7,64
    1320:	00100513          	li	a0,1
    1324:	01200613          	li	a2,18
    1328:	00000073          	ecall
    132c:	00a73633          	sltu	a2,a4,a0
    1330:	40a008bb          	negw	a7,a0
    1334:	40c0063b          	negw	a2,a2
    1338:	01167633          	and	a2,a2,a7
    133c:	03061613          	slli	a2,a2,0x30
    1340:	03065613          	srli	a2,a2,0x30
    1344:	02c7e263          	bltu	a5,a2,0x1368
    1348:	00261613          	slli	a2,a2,0x2
    134c:	01060633          	add	a2,a2,a6
    1350:	00062603          	lw	a2,0(a2)
    1354:	01060633          	add	a2,a2,a6
    1358:	00060067          	jr	a2
    135c:	00069423          	sh	zero,8(a3)
    1360:	00a6b023          	sd	a0,0(a3)
    1364:	00008067          	ret
    1368:	01600513          	li	a0,22
    136c:	06a60463          	beq	a2,a0,0x13d4
    1370:	01b00513          	li	a0,27
    1374:	06a60463          	beq	a2,a0,0x13dc
    1378:	01c00513          	li	a0,28
    137c:	06a60463          	beq	a2,a0,0x13e4
    1380:	02000513          	li	a0,32
    1384:	06a60463          	beq	a2,a0,0x13ec
    1388:	06800513          	li	a0,104
    138c:	06a60463          	beq	a2,a0,0x13f4
    1390:	07a00513          	li	a0,122
    1394:	00a61663          	bne	a2,a0,0x13a0
    1398:	00100513          	li	a0,1
    139c:	05c0006f          	j	0x13f8
    13a0:	00f00513          	li	a0,15
    13a4:	00a69423          	sh	a0,8(a3)
    13a8:	00008067          	ret
    13ac:	00700513          	li	a0,7
    13b0:	0480006f          	j	0x13f8
    13b4:	00300513          	li	a0,3
    13b8:	0400006f          	j	0x13f8
    13bc:	00b00513          	li	a0,11
    13c0:	0380006f          	j	0x13f8
    13c4:	00d00513          	li	a0,13
    13c8:	0300006f          	j	0x13f8
    13cc:	00500513          	li	a0,5
    13d0:	0280006f          	j	0x13f8
    13d4:	00600513          	li	a0,6
    13d8:	0200006f          	j	0x13f8
    13dc:	00200513          	li	a0,2
    13e0:	0180006f          	j	0x13f8
    13e4:	00400513          	li	a0,4
    13e8:	0100006f          	j	0x13f8
    13ec:	00800513          	li	a0,8
    13f0:	0080006f          	j	0x13f8
    13f4:	00e00513          	li	a0,14
    13f8:	00a6b423          	sd	a0,8(a3)
    13fc:	0006b023          	sd	zero,0(a3)
    1400:	00008067          	ret
    1404:	fff5061b          	addiw	a2,a0,-1
    1408:	00100593          	li	a1,1
    140c:	00050693          	mv	a3,a0
    1410:	0006871b          	sext.w	a4,a3
    1414:	00e5fa63          	bgeu	a1,a4,0x1428
    1418:	00c5053b          	addw	a0,a0,a2
    141c:	fff6061b          	addiw	a2,a2,-1
    1420:	fff6869b          	addiw	a3,a3,-1
    1424:	fedff06f          	j	0x1410
    1428:	00008067          	ret
    142c:	00000513          	li	a0,0
    1430:	00008067          	ret
